; Function Attrs: mustprogress uwtable
define void @_ZN32pxrInternal_v0_24__pxrReserved__25SdfLayerStateDelegateBase8SetFieldERKNS_7SdfPathERKNS_7TfTokenERKNS_25SdfAbstractDataConstValueEPNS_7VtValueE(ptr noundef nonnull align 8 dereferenceable(40) %0, ptr noundef nonnull align 4 dereferenceable(8) %1, ptr noundef nonnull align 8 dereferenceable(8) %2, ptr noundef nonnull align 8 dereferenceable(24) %3, ptr noundef %4) local_unnamed_addr #5 align 2 {
  %6 = alloca %"class.pxrInternal_v0_24__pxrReserved__::TfCallContext", align 8
  %7 = load ptr, ptr %0, align 8
  %8 = getelementptr inbounds i8, ptr %7, i64 56
  %9 = load ptr, ptr %8, align 8
  tail call void %9(ptr noundef nonnull align 8 dereferenceable(40) %0, ptr noundef nonnull align 4 dereferenceable(8) %1, ptr noundef nonnull align 8 dereferenceable(8) %2, ptr noundef nonnull align 8 dereferenceable(24) %3)
  call void @llvm.lifetime.start.p0(i64 40, ptr nonnull %6)
  %10 = getelementptr inbounds i8, ptr %0, i64 32
  %11 = load ptr, ptr %10, align 8
  %.not.i.i.i.i.i = icmp eq ptr %11, null
  br i1 %.not.i.i.i.i.i, label %_ZNK32pxrInternal_v0_24__pxrReserved__15TfWeakPtrFacadeINS_9TfWeakPtrENS_8SdfLayerEE13_FetchPointerEv.exit.thread.i, label %_ZNK32pxrInternal_v0_24__pxrReserved__8TfRefPtrINS_10Tf_RemnantEEptEv.exit.i.i.i.i

_ZNK32pxrInternal_v0_24__pxrReserved__8TfRefPtrINS_10Tf_RemnantEEptEv.exit.i.i.i.i: ; preds = %5
  %12 = getelementptr inbounds nuw i8, ptr %0, i64 24
  %13 = getelementptr inbounds nuw i8, ptr %11, i64 14
  %14 = load i8, ptr %13, align 2
  %15 = trunc i8 %14 to i1
  %16 = load ptr, ptr %12, align 8
  %.not.i = icmp ne ptr %16, null
  %or.cond.not.i = select i1 %15, i1 %.not.i, i1 false
  br i1 %or.cond.not.i, label %_ZNK32pxrInternal_v0_24__pxrReserved__15TfWeakPtrFacadeINS_9TfWeakPtrENS_8SdfLayerEEptEv.exit, label %_ZNK32pxrInternal_v0_24__pxrReserved__15TfWeakPtrFacadeINS_9TfWeakPtrENS_8SdfLayerEE13_FetchPointerEv.exit.thread.i

_ZNK32pxrInternal_v0_24__pxrReserved__15TfWeakPtrFacadeINS_9TfWeakPtrENS_8SdfLayerEE13_FetchPointerEv.exit.thread.i: ; preds = %_ZNK32pxrInternal_v0_24__pxrReserved__8TfRefPtrINS_10Tf_RemnantEEptEv.exit.i.i.i.i, %5
  store ptr @.str, ptr %6, align 8
  %17 = getelementptr inbounds nuw i8, ptr %6, i64 8
  store ptr @__func__._ZNK32pxrInternal_v0_24__pxrReserved__15TfWeakPtrFacadeINS_9TfWeakPtrENS_8SdfLayerEEptEv, ptr %17, align 8
  %18 = getelementptr inbounds nuw i8, ptr %6, i64 16
  store i64 198, ptr %18, align 8
  %19 = getelementptr inbounds nuw i8, ptr %6, i64 24
  store ptr @__PRETTY_FUNCTION__._ZNK32pxrInternal_v0_24__pxrReserved__15TfWeakPtrFacadeINS_9TfWeakPtrENS_8SdfLayerEEptEv, ptr %19, align 8
  %20 = getelementptr inbounds nuw i8, ptr %6, i64 32
  store i8 0, ptr %20, align 8
  call void @_ZN32pxrInternal_v0_24__pxrReserved__40Tf_PostNullSmartPtrDereferenceFatalErrorERKNS_13TfCallContextEPKc(ptr noundef nonnull align 8 dereferenceable(33) %6, ptr noundef nonnull @_ZTSN32pxrInternal_v0_24__pxrReserved__9TfWeakPtrINS_8SdfLayerEEE) #19
  unreachable

_ZNK32pxrInternal_v0_24__pxrReserved__15TfWeakPtrFacadeINS_9TfWeakPtrENS_8SdfLayerEEptEv.exit: ; preds = %_ZNK32pxrInternal_v0_24__pxrReserved__8TfRefPtrINS_10Tf_RemnantEEptEv.exit.i.i.i.i
  call void @llvm.lifetime.end.p0(i64 40, ptr nonnull %6)
  tail call void @_ZN32pxrInternal_v0_24__pxrReserved__8SdfLayer13_PrimSetFieldINS_25SdfAbstractDataConstValueEEEvRKNS_7SdfPathERKNS_7TfTokenERKT_PNS_7VtValueEb(ptr noundef nonnull align 8 dereferenceable(557) %16, ptr noundef nonnull align 4 dereferenceable(8) %1, ptr noundef nonnull align 8 dereferenceable(8) %2, ptr noundef nonnull align 8 dereferenceable(24) %3, ptr noundef %4, i1 noundef zeroext false)
  ret void
}